; ModuleID = '25/857.cpp'
source_filename = "25/857.cpp"
target datalayout = "e-m:e-p270:32:32-p271:32:32-p272:64:64-i64:64-f80:128-n8:16:32:64-S128"
target triple = "x86_64-pc-linux-gnu"

%"class.std::ios_base::Init" = type { i8 }
%"class.std::basic_istream" = type { i32 (...)**, i64, %"class.std::basic_ios" }
%"class.std::basic_ios" = type { %"class.std::ios_base", %"class.std::basic_ostream"*, i8, i8, %"class.std::basic_streambuf"*, %"class.std::ctype"*, %"class.std::num_put"*, %"class.std::num_get"* }
%"class.std::ios_base" = type { i32 (...)**, i64, i64, i32, i32, i32, %"struct.std::ios_base::_Callback_list"*, %"struct.std::ios_base::_Words", [8 x %"struct.std::ios_base::_Words"], i32, %"struct.std::ios_base::_Words"*, %"class.std::locale" }
%"struct.std::ios_base::_Callback_list" = type { %"struct.std::ios_base::_Callback_list"*, void (i32, %"class.std::ios_base"*, i32)*, i32, i32 }
%"struct.std::ios_base::_Words" = type { i8*, i64 }
%"class.std::locale" = type { %"class.std::locale::_Impl"* }
%"class.std::locale::_Impl" = type { i32, %"class.std::locale::facet"**, i64, %"class.std::locale::facet"**, i8** }
%"class.std::locale::facet" = type <{ i32 (...)**, i32, [4 x i8] }>
%"class.std::basic_ostream" = type { i32 (...)**, %"class.std::basic_ios" }
%"class.std::basic_streambuf" = type { i32 (...)**, i8*, i8*, i8*, i8*, i8*, i8*, %"class.std::locale" }
%"class.std::ctype" = type <{ %"class.std::locale::facet.base", [4 x i8], %struct.__locale_struct*, i8, [7 x i8], i32*, i32*, i16*, i8, [256 x i8], [256 x i8], i8, [6 x i8] }>
%"class.std::locale::facet.base" = type <{ i32 (...)**, i32 }>
%struct.__locale_struct = type { [13 x %struct.__locale_data*], i16*, i32*, i32*, [13 x i8*] }
%struct.__locale_data = type opaque
%"class.std::num_put" = type { %"class.std::locale::facet.base", [4 x i8] }
%"class.std::num_get" = type { %"class.std::locale::facet.base", [4 x i8] }

@_ZStL8__ioinit = internal global %"class.std::ios_base::Init" zeroinitializer, align 1
@__dso_handle = external hidden global i8
@_ZSt3cin = external dso_local global %"class.std::basic_istream", align 8
@_ZSt4cout = external dso_local global %"class.std::basic_ostream", align 8
@llvm.global_ctors = appending global [1 x { i32, void ()*, i8* }] [{ i32, void ()*, i8* } { i32 65535, void ()* @_GLOBAL__sub_I_857.cpp, i8* null }]

; Function Attrs: noinline uwtable
define internal void @__cxx_global_var_init() #0 section ".text.startup" {
  call void @_ZNSt8ios_base4InitC1Ev(%"class.std::ios_base::Init"* @_ZStL8__ioinit)
  %1 = call i32 @__cxa_atexit(void (i8*)* bitcast (void (%"class.std::ios_base::Init"*)* @_ZNSt8ios_base4InitD1Ev to void (i8*)*), i8* getelementptr inbounds (%"class.std::ios_base::Init", %"class.std::ios_base::Init"* @_ZStL8__ioinit, i32 0, i32 0), i8* @__dso_handle) #3
  ret void
}

declare dso_local void @_ZNSt8ios_base4InitC1Ev(%"class.std::ios_base::Init"*) unnamed_addr #1

; Function Attrs: nounwind
declare dso_local void @_ZNSt8ios_base4InitD1Ev(%"class.std::ios_base::Init"*) unnamed_addr #2

; Function Attrs: nounwind
declare dso_local i32 @__cxa_atexit(void (i8*)*, i8*, i8*) #3

; Function Attrs: noinline norecurse uwtable
define dso_local i32 @main() #4 {
  %1 = alloca i32, align 4
  %2 = alloca i32, align 4
  %3 = alloca [1001 x i32], align 16
  %4 = alloca i32, align 4
  %5 = alloca i32, align 4
  store i32 0, i32* %1, align 4
  %6 = call dereferenceable(280) %"class.std::basic_istream"* @_ZNSirsERi(%"class.std::basic_istream"* @_ZSt3cin, i32* dereferenceable(4) %2)
  %7 = bitcast [1001 x i32]* %3 to i8*
  call void @llvm.memset.p0i8.i64(i8* align 16 %7, i8 0, i64 4004, i1 false)
  %8 = getelementptr inbounds [1001 x i32], [1001 x i32]* %3, i64 0, i64 1000
  store i32 1, i32* %8, align 16
  br label %9

9:                                                ; preds = %52, %0
  %10 = load i32, i32* %2, align 4
  %11 = add nsw i32 %10, -1
  store i32 %11, i32* %2, align 4
  %12 = icmp ne i32 %10, 0
  br i1 %12, label %13, label %53

13:                                               ; preds = %9
  store i32 1000, i32* %4, align 4
  br label %14

14:                                               ; preds = %23, %13
  %15 = load i32, i32* %4, align 4
  %16 = icmp sgt i32 %15, 0
  br i1 %16, label %17, label %26

17:                                               ; preds = %14
  %18 = load i32, i32* %4, align 4
  %19 = sext i32 %18 to i64
  %20 = getelementptr inbounds [1001 x i32], [1001 x i32]* %3, i64 0, i64 %19
  %21 = load i32, i32* %20, align 4
  %22 = mul nsw i32 %21, 2
  store i32 %22, i32* %20, align 4
  br label %23

23:                                               ; preds = %17
  %24 = load i32, i32* %4, align 4
  %25 = add nsw i32 %24, -1
  store i32 %25, i32* %4, align 4
  br label %14

26:                                               ; preds = %14
  store i32 1000, i32* %4, align 4
  br label %27

27:                                               ; preds = %49, %26
  %28 = load i32, i32* %4, align 4
  %29 = icmp sgt i32 %28, 0
  br i1 %29, label %30, label %52

30:                                               ; preds = %27
  %31 = load i32, i32* %4, align 4
  %32 = sext i32 %31 to i64
  %33 = getelementptr inbounds [1001 x i32], [1001 x i32]* %3, i64 0, i64 %32
  %34 = load i32, i32* %33, align 4
  %35 = icmp sge i32 %34, 10
  br i1 %35, label %36, label %48

36:                                               ; preds = %30
  %37 = load i32, i32* %4, align 4
  %38 = sext i32 %37 to i64
  %39 = getelementptr inbounds [1001 x i32], [1001 x i32]* %3, i64 0, i64 %38
  %40 = load i32, i32* %39, align 4
  %41 = sub nsw i32 %40, 10
  store i32 %41, i32* %39, align 4
  %42 = load i32, i32* %4, align 4
  %43 = sub nsw i32 %42, 1
  %44 = sext i32 %43 to i64
  %45 = getelementptr inbounds [1001 x i32], [1001 x i32]* %3, i64 0, i64 %44
  %46 = load i32, i32* %45, align 4
  %47 = add nsw i32 %46, 1
  store i32 %47, i32* %45, align 4
  br label %48

48:                                               ; preds = %36, %30
  br label %49

49:                                               ; preds = %48
  %50 = load i32, i32* %4, align 4
  %51 = add nsw i32 %50, -1
  store i32 %51, i32* %4, align 4
  br label %27

52:                                               ; preds = %27
  br label %9

53:                                               ; preds = %9
  store i32 0, i32* %4, align 4
  br label %54

54:                                               ; preds = %79, %53
  %55 = load i32, i32* %4, align 4
  %56 = icmp sle i32 %55, 1000
  br i1 %56, label %57, label %82

57:                                               ; preds = %54
  %58 = load i32, i32* %4, align 4
  %59 = sext i32 %58 to i64
  %60 = getelementptr inbounds [1001 x i32], [1001 x i32]* %3, i64 0, i64 %59
  %61 = load i32, i32* %60, align 4
  %62 = icmp ne i32 %61, 0
  br i1 %62, label %63, label %78

63:                                               ; preds = %57
  %64 = load i32, i32* %4, align 4
  store i32 %64, i32* %5, align 4
  br label %65

65:                                               ; preds = %74, %63
  %66 = load i32, i32* %5, align 4
  %67 = icmp sle i32 %66, 1000
  br i1 %67, label %68, label %77

68:                                               ; preds = %65
  %69 = load i32, i32* %5, align 4
  %70 = sext i32 %69 to i64
  %71 = getelementptr inbounds [1001 x i32], [1001 x i32]* %3, i64 0, i64 %70
  %72 = load i32, i32* %71, align 4
  %73 = call dereferenceable(272) %"class.std::basic_ostream"* @_ZNSolsEi(%"class.std::basic_ostream"* @_ZSt4cout, i32 %72)
  br label %74

74:                                               ; preds = %68
  %75 = load i32, i32* %5, align 4
  %76 = add nsw i32 %75, 1
  store i32 %76, i32* %5, align 4
  br label %65

77:                                               ; preds = %65
  br label %82

78:                                               ; preds = %57
  br label %79

79:                                               ; preds = %78
  %80 = load i32, i32* %4, align 4
  %81 = add nsw i32 %80, 1
  store i32 %81, i32* %4, align 4
  br label %54

82:                                               ; preds = %77, %54
  ret i32 0
}

declare dso_local dereferenceable(280) %"class.std::basic_istream"* @_ZNSirsERi(%"class.std::basic_istream"*, i32* dereferenceable(4)) #1

; Function Attrs: argmemonly nounwind willreturn
declare void @llvm.memset.p0i8.i64(i8* nocapture writeonly, i8, i64, i1 immarg) #5

declare dso_local dereferenceable(272) %"class.std::basic_ostream"* @_ZNSolsEi(%"class.std::basic_ostream"*, i32) #1

; Function Attrs: noinline uwtable
define internal void @_GLOBAL__sub_I_857.cpp() #0 section ".text.startup" {
  call void @__cxx_global_var_init()
  ret void
}


!llvm.module.flags = !{!0}
!llvm.ident = !{!1}

!0 = !{i32 1, !"wchar_size", i32 4}
!1 = !{!"clang version 10.0.0-4ubuntu1 "}
